(dp0
I12
(dp1
S'pression'
p2
S'1015.89'
p3
sS'humidite'
p4
S'38.38'
p5
sS'temperature'
p6
S'34.61'
p7
ssI13
(dp8
g2
S'1015.66'
p9
sg4
S'37.45'
p10
sg6
S'34.83'
p11
ssI14
(dp12
g2
S'1015.25'
p13
sg4
S'35.38'
p14
sg6
S'35.01'
p15
ssI15
(dp16
g2
S'1014.83'
p17
sg4
S'33.69'
p18
sg6
S'35.43'
p19
ssI16
(dp20
g2
S'1014.36'
p21
sg4
S'32.91'
p22
sg6
S'35.69'
p23
ssI17
(dp24
g2
S'1014.01'
p25
sg4
S'31.15'
p26
sg6
S'35.92'
p27
ssI18
(dp28
g2
S'1013.74'
p29
sg4
S'30.99'
p30
sg6
S'35.57'
p31
ssI19
(dp32
g2
S'1013.68'
p33
sg4
S'31.49'
p34
sg6
S'35.25'
p35
ssI20
(dp36
g2
S'1013.97'
p37
sg4
S'37.09'
p38
sg6
S'33.77'
p39
ssI21
(dp40
g2
S'1014.34'
p41
sg4
S'45.22'
p42
sg6
S'32.12'
p43
ssI22
(dp44
g2
S'1015.08'
p45
sg4
S'49.57'
p46
sg6
S'29.91'
p47
ssI23
(dp48
g2
S'1015.3'
p49
sg4
S'50.83'
p50
sg6
S'29.22'
p51
ss.