(dp0
I0
(dp1
S'pression'
p2
S'1007.77'
p3
sS'humidite'
p4
S'75.24'
p5
sS'temperature'
p6
S'129.6'
p7
ssI1
(dp8
g2
S'1006.32'
p9
sg4
S'77.94'
p10
sg6
S'118.0'
p11
ssI10
(dp12
g2
S'1011.42'
p13
sg4
S''
p14
sg6
g14
ssI11
(dp15
g2
S'1011.69'
p16
sg4
S'52.42'
p17
sg6
S'20.35'
p18
ssI12
(dp19
g2
S'1011.96'
p20
sg4
g14
sg6
g14
ssI13
(dp21
g2
S'1012.09'
p22
sg4
S'46.34'
p23
sg6
S'20.48'
p24
ssI14
(dp25
g2
S'1012.47'
p26
sg4
S'52.68'
p27
sg6
S'19.37'
p28
ssI16
(dp29
g2
S'1013.00'
p30
sg4
S'56.17'
p31
sg6
S'19.42'
p32
ssI22
(dp33
g2
S'1017.20'
p34
sg4
S'68.53'
p35
sg6
S'13.96'
p36
ss.