(dp0
I0
(dp1
S'pression'
p2
S'1023.59'
p3
sS'humidite'
p4
S'75.79'
p5
sS'temperature'
p6
S'-13.4'
p7
ssI1
(dp8
g2
S'1023.53'
p9
sg4
S'75.79'
p10
sg6
S'-13.4'
p11
ssI2
(dp12
g2
S'1023.37'
p13
sg4
S'75.79'
p14
sg6
S'-13.4'
p15
ssI3
(dp16
g2
S'1023.08'
p17
sg4
S'75.79'
p18
sg6
S'-13.4'
p19
ssI4
(dp20
g2
S'1023.01'
p21
sg4
S'75.79'
p22
sg6
S'-13.4'
p23
ssI5
(dp24
g2
S'1022.89'
p25
sg4
S'75.79'
p26
sg6
S'-13.4'
p27
ssI6
(dp28
g2
S'1022.74'
p29
sg4
S'75.79'
p30
sg6
S'-13.4'
p31
ssI7
(dp32
g2
S'1022.69'
p33
sg4
S'75.79'
p34
sg6
S'-13.4'
p35
ssI8
(dp36
g2
S'1022.47'
p37
sg4
S'75.79'
p38
sg6
S'-13.4'
p39
ssI9
(dp40
g2
S'1022.40'
p41
sg4
S'75.79'
p42
sg6
S'-13.4'
p43
ssI10
(dp44
g2
S'1022.16'
p45
sg4
S'75.79'
p46
sg6
S'-13.4'
p47
ssI11
(dp48
g2
S'1021.66'
p49
sg4
S'75.79'
p50
sg6
S'-13.4'
p51
ssI12
(dp52
g2
S'1021.40'
p53
sg4
S'75.79'
p54
sg6
S'-13.4'
p55
ssI13
(dp56
g2
S'1020.93'
p57
sg4
S'75.79'
p58
sg6
S'-13.4'
p59
ssI14
(dp60
g2
S'1020.24'
p61
sg4
S'75.79'
p62
sg6
S'-13.4'
p63
ssI15
(dp64
g2
S'1019.83'
p65
sg4
S'75.79'
p66
sg6
S'-13.4'
p67
ssI16
(dp68
g2
S'1019.46'
p69
sg4
S'75.79'
p70
sg6
S'-13.4'
p71
ssI17
(dp72
g2
S'1018.87'
p73
sg4
S'75.79'
p74
sg6
S'-13.4'
p75
ssI18
(dp76
g2
S'1018.55'
p77
sg4
S'0.758'
p78
sg6
S'-40.7'
p79
ssI19
(dp80
g2
S'1018.09'
p81
sg4
S'0.1'
p82
sg6
S'-40.9'
p83
ssI20
(dp84
g2
S'1017.77'
p85
sg4
S'0.1'
p86
sg6
S'-40.9'
p87
ssI21
(dp88
g2
S'1017.76'
p89
sg4
S'0.1'
p90
sg6
S'-40.9'
p91
ss.