(dp0
I0
(dp1
S'pression'
p2
S'1019.91'
p3
sS'humidite'
p4
S'71.50'
p5
sS'temperature'
p6
S'22.44'
p7
ssI1
(dp8
g2
S'1020.24'
p9
sg4
S'72.24'
p10
sg6
S'21.70'
p11
ssI2
(dp12
g2
S'1020.71'
p13
sg4
S'77.11'
p14
sg6
S'20.50'
p15
ssI3
(dp16
g2
S'1021.06'
p17
sg4
S'77.14'
p18
sg6
S'19.54'
p19
ssI4
(dp20
g2
S'1021.60'
p21
sg4
S'75.83'
p22
sg6
S'18.49'
p23
ssI5
(dp24
g2
S'1021.76'
p25
sg4
S'75.13'
p26
sg6
S'17.49'
p27
ssI6
(dp28
g2
S'1022.10'
p29
sg4
S'72.73'
p30
sg6
S'17.20'
p31
ssI7
(dp32
g2
S'1022.66'
p33
sg4
S'67.02'
p34
sg6
S'17.54'
p35
ssI8
(dp36
g2
S'1023.24'
p37
sg4
S'63.40'
p38
sg6
S'18.04'
p39
ssI9
(dp40
g2
S'1023.35'
p41
sg4
S'53.99'
p42
sg6
S'21.10'
p43
ssI10
(dp44
g2
S'1023.27'
p45
sg4
S'46.68'
p46
sg6
S'23.56'
p47
ssI11
(dp48
g2
S'1023.35'
p49
sg4
S'47.91'
p50
sg6
S'22.89'
p51
ssI12
(dp52
g2
S'1023.42'
p53
sg4
S'49.40'
p54
sg6
S'22.57'
p55
ssI18
(dp56
g2
S'961.814'
p57
sg4
S'nan'
p58
sg6
S'nan'
p59
ssI19
(dp60
g2
S'1020.84'
p61
sg4
S''
p62
sg6
g62
ssI20
(dp63
g2
S'1020.65'
p64
sg4
g62
sg6
g62
ssI21
(dp65
g2
S'1020.53'
p66
sg4
S'nan'
p67
sg6
S'nan'
p68
ss.