(dp0
I0
(dp1
S'pression'
p2
S'1019.45'
p3
sS'humidite'
p4
S'63.27'
p5
sS'temperature'
p6
S'23.26'
p7
ssI1
(dp8
g2
S'1019.13'
p9
sg4
S'61.94'
p10
sg6
S'22.92'
p11
ssI2
(dp12
g2
S'1019.06'
p13
sg4
S'67.10'
p14
sg6
S'21.67'
p15
ssI3
(dp16
g2
S'1018.83'
p17
sg4
S'70.43'
p18
sg6
S'20.96'
p19
ssI4
(dp20
g2
S'1018.49'
p21
sg4
S'74.34'
p22
sg6
S'20.09'
p23
ssI5
(dp24
g2
S'1018.37'
p25
sg4
S'77.61'
p26
sg6
S'19.38'
p27
ssI6
(dp28
g2
S'1018.43'
p29
sg4
S'78.52'
p30
sg6
S'19.31'
p31
ssI7
(dp32
g2
S'1018.49'
p33
sg4
S'76.75'
p34
sg6
S'19.74'
p35
ssI8
(dp36
g2
S'1018.49'
p37
sg4
S''
p38
sg6
g38
ssI9
(dp39
g2
S'1018.41'
p40
sg4
g38
sg6
g38
ssI10
(dp41
g2
S'1018.15'
p42
sg4
g38
sg6
g38
ssI11
(dp43
g2
S'1017.78'
p44
sg4
S'41.97'
p45
sg6
S'31.93'
p46
ssI12
(dp47
g2
S'1017.71'
p48
sg4
S'40.54'
p49
sg6
S'32.25'
p50
ssI13
(dp51
g2
S'1017.43'
p52
sg4
S'39.78'
p53
sg6
S'32.70'
p54
ssI14
(dp55
g2
S'1016.96'
p56
sg4
S'38.01'
p57
sg6
S'33.31'
p58
ssI15
(dp59
g2
S'1016.57'
p60
sg4
S'36.49'
p61
sg6
S'33.68'
p62
ssI16
(dp63
g2
S'1016.16'
p64
sg4
S'34.35'
p65
sg6
S'34.10'
p66
ssI17
(dp67
g2
S'1015.73'
p68
sg4
S'33.46'
p69
sg6
S'34.50'
p70
ssI18
(dp71
g2
S'1015.49'
p72
sg4
S'33.43'
p73
sg6
S'34.44'
p74
ssI19
(dp75
g2
S'1015.41'
p76
sg4
S'34.02'
p77
sg6
S'34.24'
p78
ssI20
(dp79
g2
S'1015.53'
p80
sg4
S'38.26'
p81
sg6
S'33.14'
p82
ssI21
(dp83
g2
S'1015.75'
p84
sg4
S'50.55'
p85
sg6
S'30.15'
p86
ssI22
(dp87
g2
S'1016.21'
p88
sg4
S'60.12'
p89
sg6
S'27.65'
p90
ssI23
(dp91
g2
S'1016.52'
p92
sg4
S'64.57'
p93
sg6
S'26.59'
p94
ss.