(dp0
I0
(dp1
S'pression'
p2
S'1010.39'
p3
sS'humidite'
p4
S'87.10'
p5
sS'temperature'
p6
S'21.38'
p7
ssI1
(dp8
g2
S'1010.17'
p9
sg4
S'85.72'
p10
sg6
S'21.26'
p11
ssI2
(dp12
g2
S'1009.77'
p13
sg4
S'87.32'
p14
sg6
S'20.98'
p15
ssI3
(dp16
g2
S'1009.47'
p17
sg4
S'86.25'
p18
sg6
S'20.80'
p19
ssI4
(dp20
g2
S'1008.96'
p21
sg4
S'86.43'
p22
sg6
S'20.66'
p23
ssI5
(dp24
g2
S'1008.76'
p25
sg4
S'86.30'
p26
sg6
S'20.54'
p27
ssI6
(dp28
g2
S'1008.54'
p29
sg4
S'86.77'
p30
sg6
S'20.53'
p31
ssI7
(dp32
g2
S'1008.39'
p33
sg4
S'88.33'
p34
sg6
S'20.56'
p35
ssI8
(dp36
g2
S'1008.25'
p37
sg4
S'81.34'
p38
sg6
S'22.11'
p39
ssI9
(dp40
g2
S'1008.10'
p41
sg4
S'69.42'
p42
sg6
S'24.25'
p43
ssI10
(dp44
g2
S'1008.08'
p45
sg4
S'63.95'
p46
sg6
S'25.38'
p47
ssI13
(dp48
g2
S'1006.20'
p49
sg4
S'52.14'
p50
sg6
S'27.68'
p51
ssI14
(dp52
g2
S'1005.55'
p53
sg4
S'50.54'
p54
sg6
S'28.29'
p55
ssI15
(dp56
g2
S'1005.44'
p57
sg4
S'54.19'
p58
sg6
S'27.38'
p59
ssI16
(dp60
g2
S'1005.93'
p61
sg4
S'63.67'
p62
sg6
S'25.89'
p63
ssI17
(dp64
g2
S'1005.89'
p65
sg4
S'82.89'
p66
sg6
S'22.39'
p67
ssI18
(dp68
g2
S'1004.79'
p69
sg4
S'99.44'
p70
sg6
S'20.56'
p71
ssI19
(dp72
g2
S'1004.50'
p73
sg4
S'94.63'
p74
sg6
S'22.00'
p75
ssI20
(dp76
g2
S'1004.62'
p77
sg4
S'96.87'
p78
sg6
S'20.24'
p79
ss.