(dp0
I0
(dp1
S'pression'
p2
S'1004.72'
p3
sS'humidite'
p4
S'72.24'
p5
sS'temperature'
p6
S'17.64'
p7
ssI1
(dp8
g2
S'1004.31'
p9
sg4
S'72.30'
p10
sg6
S'17.50'
p11
ssI2
(dp12
g2
S'1003.72'
p13
sg4
S'71.85'
p14
sg6
S'17.04'
p15
ssI3
(dp16
g2
S'1003.27'
p17
sg4
S'68.89'
p18
sg6
S'17.03'
p19
ssI4
(dp20
g2
S'1003.02'
p21
sg4
S'68.80'
p22
sg6
S'17.08'
p23
ssI10
(dp24
g2
S'1001.60'
p25
sg4
S'76.07'
p26
sg6
S'18.57'
p27
ssI11
(dp28
g2
S'1001.49'
p29
sg4
S'75.46'
p30
sg6
S'18.74'
p31
ssI12
(dp32
g2
S'1001.36'
p33
sg4
S'75.25'
p34
sg6
S'21.43'
p35
ssI13
(dp36
g2
S'1000.87'
p37
sg4
S'69.65'
p38
sg6
S'22.58'
p39
ssI14
(dp40
g2
S'1000.34'
p41
sg4
S'60.37'
p42
sg6
S'23.32'
p43
ssI15
(dp44
g2
S'999.906'
p45
sg4
S'59.37'
p46
sg6
S'23.60'
p47
ssI16
(dp48
g2
S'999.823'
p49
sg4
S'64.64'
p50
sg6
S'22.77'
p51
ssI17
(dp52
g2
S'1000.46'
p53
sg4
S'76.11'
p54
sg6
S'17.75'
p55
ssI18
(dp56
g2
S'999.270'
p57
sg4
S'75.07'
p58
sg6
S'19.48'
p59
ssI19
(dp60
g2
S'999.323'
p61
sg4
S'73.58'
p62
sg6
S'20.43'
p63
ssI20
(dp64
g2
S'999.240'
p65
sg4
S'74.90'
p66
sg6
S'20.25'
p67
ssI21
(dp68
g2
S'999.632'
p69
sg4
S'77.07'
p70
sg6
S'19.39'
p71
ssI22
(dp72
g2
S'1000.17'
p73
sg4
S'82.05'
p74
sg6
S'18.44'
p75
ssI23
(dp76
g2
S'1000.2'
p77
sg4
S'82.43'
p78
sg6
S'17.8'
p79
ss.