(dp0
I10
(dp1
S'pression'
p2
S'1012.82'
p3
sS'humidite'
p4
S'42.78'
p5
sS'temperature'
p6
S'31.07'
p7
ssI11
(dp8
g2
S'1012.44'
p9
sg4
S'46.55'
p10
sg6
S'28.90'
p11
ssI12
(dp12
g2
S'1012.10'
p13
sg4
S'48.21'
p14
sg6
S'27.92'
p15
ssI13
(dp16
g2
S'1011.89'
p17
sg4
S'49.60'
p18
sg6
S'27.81'
p19
ssI14
(dp20
g2
S'1011.50'
p21
sg4
S'47.06'
p22
sg6
S'28.81'
p23
ssI15
(dp24
g2
S'1011.45'
p25
sg4
S'48.39'
p26
sg6
S'28.43'
p27
ssI16
(dp28
g2
S'1011.69'
p29
sg4
S'54.64'
p30
sg6
S'26.50'
p31
ssI17
(dp32
g2
S'1011.64'
p33
sg4
S'57.14'
p34
sg6
S'172.6'
p35
ssI18
(dp36
g2
S'1011.04'
p37
sg4
S'49.36'
p38
sg6
S'270.1'
p39
ssI19
(dp40
g2
S'1010.71'
p41
sg4
S'80.60'
p42
sg6
S'23.27'
p43
ssI20
(dp44
g2
S'1010.88'
p45
sg4
S'79.58'
p46
sg6
S'23.28'
p47
ssI21
(dp48
g2
S'1010.87'
p49
sg4
S'82.26'
p50
sg6
S'22.73'
p51
ssI22
(dp52
g2
S'1010.76'
p53
sg4
S'84.68'
p54
sg6
S'22.30'
p55
ss.