(dp0
I11
(dp1
S'pression'
p2
S'1021.15'
p3
sS'humidite'
p4
S'46.15'
p5
sS'temperature'
p6
S'27.91'
p7
ssI12
(dp8
g2
S'1020.92'
p9
sg4
S'47.47'
p10
sg6
S'27.30'
p11
ssI13
(dp12
g2
S'1020.42'
p13
sg4
S'46.68'
p14
sg6
S'27.40'
p15
ssI14
(dp16
g2
S'1019.96'
p17
sg4
S'46.38'
p18
sg6
S'27.88'
p19
ssI15
(dp20
g2
S'1019.52'
p21
sg4
S'45.07'
p22
sg6
S'28.41'
p23
ssI16
(dp24
g2
S'1019.03'
p25
sg4
S'45.16'
p26
sg6
S'28.64'
p27
ssI17
(dp28
g2
S'1018.71'
p29
sg4
S'47.40'
p30
sg6
S'27.97'
p31
ssI18
(dp32
g2
S'1018.37'
p33
sg4
S'49.16'
p34
sg6
S'26.89'
p35
ssI19
(dp36
g2
S'1018.18'
p37
sg4
S'50.82'
p38
sg6
S'27.03'
p39
ssI20
(dp40
g2
S'1018.28'
p41
sg4
S'65.77'
p42
sg6
S'24.79'
p43
ssI21
(dp44
g2
S'1018.43'
p45
sg4
S'73.78'
p46
sg6
S'23.32'
p47
ssI22
(dp48
g2
S'1018.76'
p49
sg4
S'78.81'
p50
sg6
S'21.70'
p51
ssI23
(dp52
g2
S'1018.82'
p53
sg4
S'78.35'
p54
sg6
S'21.46'
p55
ss.