(dp0
I4
(dp1
S'pression'
p2
S'1025.38'
p3
sS'humidite'
p4
S'75.79'
p5
sS'temperature'
p6
S'-13.4'
p7
ssI5
(dp8
g2
S'1025.44'
p9
sg4
S'75.79'
p10
sg6
S'-13.4'
p11
ssI6
(dp12
g2
S'1025.70'
p13
sg4
S'75.79'
p14
sg6
S'-13.4'
p15
ssI7
(dp16
g2
S'1025.94'
p17
sg4
S'75.79'
p18
sg6
S'-13.4'
p19
ssI8
(dp20
g2
S'1026.00'
p21
sg4
S'75.79'
p22
sg6
S'-13.4'
p23
ssI9
(dp24
g2
S'1026.27'
p25
sg4
S'75.79'
p26
sg6
S'-13.4'
p27
ssI10
(dp28
g2
S'1026.21'
p29
sg4
S'75.79'
p30
sg6
S'-13.4'
p31
ssI11
(dp32
g2
S'1025.91'
p33
sg4
S'75.79'
p34
sg6
S'-13.4'
p35
ssI12
(dp36
g2
S'1025.78'
p37
sg4
S'75.79'
p38
sg6
S'-13.4'
p39
ssI13
(dp40
g2
S'1025.63'
p41
sg4
S'75.79'
p42
sg6
S'-13.4'
p43
ssI14
(dp44
g2
S'1025.39'
p45
sg4
S'75.79'
p46
sg6
S'-13.4'
p47
ssI15
(dp48
g2
S'1025.20'
p49
sg4
S'75.79'
p50
sg6
S'-13.4'
p51
ssI16
(dp52
g2
S'1024.76'
p53
sg4
S'75.79'
p54
sg6
S'-13.4'
p55
ssI17
(dp56
g2
S'1024.24'
p57
sg4
S'75.79'
p58
sg6
S'-13.4'
p59
ssI18
(dp60
g2
S'1023.82'
p61
sg4
S'75.79'
p62
sg6
S'-13.4'
p63
ssI19
(dp64
g2
S'1023.02'
p65
sg4
S'75.79'
p66
sg6
S'-13.4'
p67
ssI20
(dp68
g2
S'1023.45'
p69
sg4
S'75.79'
p70
sg6
S'-13.4'
p71
ssI21
(dp72
g2
S'1023.42'
p73
sg4
S'75.79'
p74
sg6
S'-13.4'
p75
ssI22
(dp76
g2
S'1023.52'
p77
sg4
S'75.79'
p78
sg6
S'-13.4'
p79
ssI23
(dp80
g2
S'1023.57'
p81
sg4
S'75.79'
p82
sg6
S'-13.4'
p83
ss.