(dp0
I0
(dp1
S'pression'
p2
S'1018.86'
p3
sS'humidite'
p4
S'78.50'
p5
sS'temperature'
p6
S'16.42'
p7
ssI1
(dp8
g2
S'1018.81'
p9
sg4
S'81.52'
p10
sg6
S'16.25'
p11
ssI2
(dp12
g2
S'1018.90'
p13
sg4
S'80.49'
p14
sg6
S'15.73'
p15
ssI3
(dp16
g2
S'1018.81'
p17
sg4
S'77.16'
p18
sg6
S'15.04'
p19
ssI4
(dp20
g2
S'1018.24'
p21
sg4
S'79.89'
p22
sg6
S'13.86'
p23
ssI10
(dp24
g2
S'1017.37'
p25
sg4
S'43.70'
p26
sg6
S'27.58'
p27
ssI12
(dp28
g2
S'1016.44'
p29
sg4
S'41.07'
p30
sg6
S'26.57'
p31
ssI13
(dp32
g2
S'1015.90'
p33
sg4
S'44.78'
p34
sg6
S'23.15'
p35
ssI14
(dp36
g2
S'1015.07'
p37
sg4
S'44.49'
p38
sg6
S'23.29'
p39
ssI15
(dp40
g2
S'1014.58'
p41
sg4
S'43.35'
p42
sg6
S'23.87'
p43
ssI16
(dp44
g2
S'1013.37'
p45
sg4
S'44.94'
p46
sg6
S'23.55'
p47
ssI17
(dp48
g2
S'1013.16'
p49
sg4
S'45.34'
p50
sg6
S'23.40'
p51
ssI18
(dp52
g2
S'1011.70'
p53
sg4
S'47.85'
p54
sg6
S'22.96'
p55
ssI20
(dp56
g2
S'1009.91'
p57
sg4
S'57.97'
p58
sg6
S'20.22'
p59
ssI22
(dp60
g2
S'1008.84'
p61
sg4
S'69.40'
p62
sg6
S'17.79'
p63
ssI23
(dp64
g2
S'1008.81'
p65
sg4
S'79.82'
p66
sg6
S'16.35'
p67
ss.