(dp0
I0
(dp1
S'pression'
p2
S'1028.22'
p3
sS'humidite'
p4
S'65.26'
p5
sS'temperature'
p6
S'19.29'
p7
ssI1
(dp8
g2
S'1028.28'
p9
sg4
S'68.42'
p10
sg6
S'18.21'
p11
ssI2
(dp12
g2
S'1028.37'
p13
sg4
S'69.57'
p14
sg6
S'17.59'
p15
ssI10
(dp16
g2
S'1028.54'
p17
sg4
S'41.82'
p18
sg6
S'28.90'
p19
ssI11
(dp20
g2
S'1028.29'
p21
sg4
S'45.55'
p22
sg6
S'24.85'
p23
ssI12
(dp24
g2
S'1027.94'
p25
sg4
S'44.55'
p26
sg6
S'24.91'
p27
ssI13
(dp28
g2
S'1027.22'
p29
sg4
S'44.21'
p30
sg6
S'25.86'
p31
ssI14
(dp32
g2
S'1026.80'
p33
sg4
S'43.10'
p34
sg6
S'26.66'
p35
ssI15
(dp36
g2
S'1026.35'
p37
sg4
S'42.53'
p38
sg6
S'27.15'
p39
ssI16
(dp40
g2
S'1025.99'
p41
sg4
S'42.39'
p42
sg6
S'27.41'
p43
ssI17
(dp44
g2
S'1025.31'
p45
sg4
S'42.41'
p46
sg6
S'27.65'
p47
ssI19
(dp48
g2
S'1024.61'
p49
sg4
S'44.87'
p50
sg6
S'27.11'
p51
ssI20
(dp52
g2
S'1024.55'
p53
sg4
S'45.25'
p54
sg6
S'nan'
p55
ss.