(dp0
I0
(dp1
S'pression'
p2
S'1018.60'
p3
sS'humidite'
p4
S'76.25'
p5
sS'temperature'
p6
S'21.55'
p7
ssI1
(dp8
g2
S'997.193'
p9
sg4
S'81.58'
p10
sg6
S'19.96'
p11
ssI2
(dp12
g2
S'969.930'
p13
sg4
S'79.40'
p14
sg6
S'19.04'
p15
ssI3
(dp16
g2
S'1017.41'
p17
sg4
S'89.30'
p18
sg6
S'17.48'
p19
ssI4
(dp20
g2
S'1017.25'
p21
sg4
S'91.16'
p22
sg6
S'17.24'
p23
ssI5
(dp24
g2
S'1017.03'
p25
sg4
S'90.92'
p26
sg6
S'16.38'
p27
ssI6
(dp28
g2
S'1017.12'
p29
sg4
S'91.18'
p30
sg6
S'16.37'
p31
ssI7
(dp32
g2
S'1017.22'
p33
sg4
S'89.36'
p34
sg6
S'17.97'
p35
ssI8
(dp36
g2
S'1017.39'
p37
sg4
S'84.85'
p38
sg6
S'20.04'
p39
ssI9
(dp40
g2
S'1017.43'
p41
sg4
S'66.67'
p42
sg6
S'24.81'
p43
ssI10
(dp44
g2
S'1017.48'
p45
sg4
S'52.00'
p46
sg6
S'29.80'
p47
ssI11
(dp48
g2
S'1017.33'
p49
sg4
S'50.71'
p50
sg6
S'30.35'
p51
ssI12
(dp52
g2
S'1017.08'
p53
sg4
S'52.19'
p54
sg6
S'28.25'
p55
ssI13
(dp56
g2
S'1016.63'
p57
sg4
S'46.42'
p58
sg6
S'30.23'
p59
ssI14
(dp60
g2
S'1016.42'
p61
sg4
S''
p62
sg6
g62
ssI15
(dp63
g2
S'1016.40'
p64
sg4
S'nan'
p65
sg6
S'nan'
p66
ssI16
(dp67
g2
S'1016.01'
p68
sg4
S'66.95'
p69
sg6
S'27.22'
p70
ssI17
(dp71
g2
S'1015.61'
p72
sg4
S'61.28'
p73
sg6
S'31.20'
p74
ssI18
(dp75
g2
S'1015.44'
p76
sg4
S'53.04'
p77
sg6
S'28.15'
p78
ssI19
(dp79
g2
S'1015.37'
p80
sg4
S'50.18'
p81
sg6
S'27.12'
p82
ssI20
(dp83
g2
S'1015.63'
p84
sg4
S'56.96'
p85
sg6
S'25.13'
p86
ssI21
(dp87
g2
S'1009.33'
p88
sg4
S'59.88'
p89
sg6
S'23.53'
p90
ssI22
(dp91
g2
S'1016.63'
p92
sg4
S'67.62'
p93
sg6
S'21.42'
p94
ssI23
(dp95
g2
S'1016.57'
p96
sg4
S'77.00'
p97
sg6
S'19.68'
p98
ss.